target datalayout = "e-m:e-p270:32:32-p271:32:32-p272:64:64-i64:64-i128:128-f80:128-n8:16:32:64-S128"
target triple = "x86_64-pc-linux-gnu"

%struct.gz_state = type { %struct.gzFile_s, i32, i32, ptr, i32, i32, ptr, ptr, i32, i32, i64, i32, i32, i32, i32, i32, i64, i32, i32, ptr, %struct.z_stream_s }
%struct.gzFile_s = type { i32, ptr, i64 }
%struct.z_stream_s = type { ptr, i32, i64, ptr, i32, i64, ptr, ptr, ptr, ptr, ptr, i32, i64, i64 }

; Function Attrs: nounwind uwtable
define internal i32 @gz_zero(ptr noundef %0, i64 noundef %1) #0 {
  %3 = alloca i32, align 4
  %4 = alloca ptr, align 8
  %5 = alloca i64, align 8
  %6 = alloca i32, align 4
  %7 = alloca i32, align 4
  %8 = alloca ptr, align 8
  %9 = alloca i32, align 4
  store ptr %0, ptr %4, align 8, !tbaa !9
  store i64 %1, ptr %5, align 8, !tbaa !20
  call void @llvm.lifetime.start.p0(i64 4, ptr %6) #10
  call void @llvm.lifetime.start.p0(i64 4, ptr %7) #10
  call void @llvm.lifetime.start.p0(i64 8, ptr %8) #10
  %10 = load ptr, ptr %4, align 8, !tbaa !9
  %11 = getelementptr inbounds nuw %struct.gz_state, ptr %10, i32 0, i32 20
  store ptr %11, ptr %8, align 8, !tbaa !31
  %12 = load ptr, ptr %8, align 8, !tbaa !31
  %13 = getelementptr inbounds nuw %struct.z_stream_s, ptr %12, i32 0, i32 1
  %14 = load i32, ptr %13, align 8, !tbaa !33
  %15 = icmp ne i32 %14, 0
  br i1 %15, label %16, label %21

16:                                               ; preds = %2
  %17 = load ptr, ptr %4, align 8, !tbaa !9
  %18 = call i32 @gz_comp(ptr noundef %17, i32 noundef 0)
  %19 = icmp eq i32 %18, -1
  br i1 %19, label %20, label %21

20:                                               ; preds = %16
  store i32 -1, ptr %3, align 4
  store i32 1, ptr %9, align 4
  br label %75

21:                                               ; preds = %16, %2
  store i32 1, ptr %6, align 4, !tbaa !10
  br label %22

22:                                               ; preds = %69, %21
  %23 = load i64, ptr %5, align 8, !tbaa !20
  %24 = icmp ne i64 %23, 0
  br i1 %24, label %25, label %74

25:                                               ; preds = %22
  %26 = load ptr, ptr %4, align 8, !tbaa !9
  %27 = getelementptr inbounds nuw %struct.gz_state, ptr %26, i32 0, i32 4
  %28 = load i32, ptr %27, align 8, !tbaa !21
  %29 = zext i32 %28 to i64
  %30 = load i64, ptr %5, align 8, !tbaa !20
  %31 = icmp sgt i64 %29, %30
  br i1 %31, label %32, label %35

32:                                               ; preds = %25
  %33 = load i64, ptr %5, align 8, !tbaa !20
  %34 = trunc i64 %33 to i32
  br label %39

35:                                               ; preds = %25
  %36 = load ptr, ptr %4, align 8, !tbaa !9
  %37 = getelementptr inbounds nuw %struct.gz_state, ptr %36, i32 0, i32 4
  %38 = load i32, ptr %37, align 8, !tbaa !21
  br label %39

39:                                               ; preds = %35, %32
  %40 = phi i32 [ %34, %32 ], [ %38, %35 ]
  store i32 %40, ptr %7, align 4, !tbaa !10
  %41 = load i32, ptr %6, align 4, !tbaa !10
  %42 = icmp ne i32 %41, 0
  br i1 %42, label %43, label %49

43:                                               ; preds = %39
  %44 = load ptr, ptr %4, align 8, !tbaa !9
  %45 = getelementptr inbounds nuw %struct.gz_state, ptr %44, i32 0, i32 6
  %46 = load ptr, ptr %45, align 8, !tbaa !25
  %47 = load i32, ptr %7, align 4, !tbaa !10
  %48 = zext i32 %47 to i64
  call void @llvm.memset.p0.i64(ptr align 1 %46, i8 0, i64 %48, i1 false)
  store i32 0, ptr %6, align 4, !tbaa !10
  br label %49

49:                                               ; preds = %43, %39
  %50 = load i32, ptr %7, align 4, !tbaa !10
  %51 = load ptr, ptr %8, align 8, !tbaa !31
  %52 = getelementptr inbounds nuw %struct.z_stream_s, ptr %51, i32 0, i32 1
  store i32 %50, ptr %52, align 8, !tbaa !33
  %53 = load ptr, ptr %4, align 8, !tbaa !9
  %54 = getelementptr inbounds nuw %struct.gz_state, ptr %53, i32 0, i32 6
  %55 = load ptr, ptr %54, align 8, !tbaa !25
  %56 = load ptr, ptr %8, align 8, !tbaa !31
  %57 = getelementptr inbounds nuw %struct.z_stream_s, ptr %56, i32 0, i32 0
  store ptr %55, ptr %57, align 8, !tbaa !34
  %58 = load i32, ptr %7, align 4, !tbaa !10
  %59 = zext i32 %58 to i64
  %60 = load ptr, ptr %4, align 8, !tbaa !9
  %61 = getelementptr inbounds nuw %struct.gz_state, ptr %60, i32 0, i32 0
  %62 = getelementptr inbounds nuw %struct.gzFile_s, ptr %61, i32 0, i32 2
  %63 = load i64, ptr %62, align 8, !tbaa !27
  %64 = add nsw i64 %63, %59
  store i64 %64, ptr %62, align 8, !tbaa !27
  %65 = load ptr, ptr %4, align 8, !tbaa !9
  %66 = call i32 @gz_comp(ptr noundef %65, i32 noundef 0)
  %67 = icmp eq i32 %66, -1
  br i1 %67, label %68, label %69

68:                                               ; preds = %49
  store i32 -1, ptr %3, align 4
  store i32 1, ptr %9, align 4
  br label %75

69:                                               ; preds = %49
  %70 = load i32, ptr %7, align 4, !tbaa !10
  %71 = zext i32 %70 to i64
  %72 = load i64, ptr %5, align 8, !tbaa !20
  %73 = sub nsw i64 %72, %71
  store i64 %73, ptr %5, align 8, !tbaa !20
  br label %22, !llvm.loop !36

74:                                               ; preds = %22
  store i32 0, ptr %3, align 4
  store i32 1, ptr %9, align 4
  br label %75

75:                                               ; preds = %74, %68, %20
  call void @llvm.lifetime.end.p0(i64 8, ptr %8) #10
  call void @llvm.lifetime.end.p0(i64 4, ptr %7) #10
  call void @llvm.lifetime.end.p0(i64 4, ptr %6) #10
  %76 = load i32, ptr %3, align 4
  ret i32 %76
}

; Function Attrs: nounwind uwtable
define dso_local i32 @cm_zlib_gzputc(ptr noundef %0, i32 noundef %1) #0 {
  %3 = alloca i32, align 4
  %4 = alloca ptr, align 8
  %5 = alloca i32, align 4
  %6 = alloca i32, align 4
  %7 = alloca [1 x i8], align 1
  %8 = alloca ptr, align 8
  %9 = alloca ptr, align 8
  %10 = alloca i32, align 4
  store ptr %0, ptr %4, align 8, !tbaa !4
  store i32 %1, ptr %5, align 4, !tbaa !10
  call void @llvm.lifetime.start.p0(i64 4, ptr %6) #10
  call void @llvm.lifetime.start.p0(i64 1, ptr %7) #10
  call void @llvm.lifetime.start.p0(i64 8, ptr %8) #10
  call void @llvm.lifetime.start.p0(i64 8, ptr %9) #10
  %11 = load ptr, ptr %4, align 8, !tbaa !4
  %12 = icmp eq ptr %11, null
  br i1 %12, label %13, label %14

13:                                               ; preds = %2
  store i32 -1, ptr %3, align 4
  store i32 1, ptr %10, align 4
  br label %114

14:                                               ; preds = %2
  %15 = load ptr, ptr %4, align 8, !tbaa !4
  store ptr %15, ptr %8, align 8, !tbaa !9
  %16 = load ptr, ptr %8, align 8, !tbaa !9
  %17 = getelementptr inbounds nuw %struct.gz_state, ptr %16, i32 0, i32 20
  store ptr %17, ptr %9, align 8, !tbaa !31
  %18 = load ptr, ptr %8, align 8, !tbaa !9
  %19 = getelementptr inbounds nuw %struct.gz_state, ptr %18, i32 0, i32 1
  %20 = load i32, ptr %19, align 8, !tbaa !12
  %21 = icmp ne i32 %20, 31153
  br i1 %21, label %27, label %22

22:                                               ; preds = %14
  %23 = load ptr, ptr %8, align 8, !tbaa !9
  %24 = getelementptr inbounds nuw %struct.gz_state, ptr %23, i32 0, i32 18
  %25 = load i32, ptr %24, align 4, !tbaa !19
  %26 = icmp ne i32 %25, 0
  br i1 %26, label %27, label %28

27:                                               ; preds = %22, %14
  store i32 -1, ptr %3, align 4
  store i32 1, ptr %10, align 4
  br label %114

28:                                               ; preds = %22
  %29 = load ptr, ptr %8, align 8, !tbaa !9
  %30 = getelementptr inbounds nuw %struct.gz_state, ptr %29, i32 0, i32 17
  %31 = load i32, ptr %30, align 8, !tbaa !22
  %32 = icmp ne i32 %31, 0
  br i1 %32, label %33, label %44

33:                                               ; preds = %28
  %34 = load ptr, ptr %8, align 8, !tbaa !9
  %35 = getelementptr inbounds nuw %struct.gz_state, ptr %34, i32 0, i32 17
  store i32 0, ptr %35, align 8, !tbaa !22
  %36 = load ptr, ptr %8, align 8, !tbaa !9
  %37 = load ptr, ptr %8, align 8, !tbaa !9
  %38 = getelementptr inbounds nuw %struct.gz_state, ptr %37, i32 0, i32 16
  %39 = load i64, ptr %38, align 8, !tbaa !23
  %40 = call i32 @gz_zero(ptr noundef %36, i64 noundef %39)
  %41 = icmp eq i32 %40, -1
  br i1 %41, label %42, label %43

42:                                               ; preds = %33
  store i32 -1, ptr %3, align 4
  store i32 1, ptr %10, align 4
  br label %114

43:                                               ; preds = %33
  br label %44

44:                                               ; preds = %43, %28
  %45 = load ptr, ptr %8, align 8, !tbaa !9
  %46 = getelementptr inbounds nuw %struct.gz_state, ptr %45, i32 0, i32 4
  %47 = load i32, ptr %46, align 8, !tbaa !21
  %48 = icmp ne i32 %47, 0
  br i1 %48, label %49, label %102

49:                                               ; preds = %44
  %50 = load ptr, ptr %9, align 8, !tbaa !31
  %51 = getelementptr inbounds nuw %struct.z_stream_s, ptr %50, i32 0, i32 1
  %52 = load i32, ptr %51, align 8, !tbaa !33
  %53 = icmp eq i32 %52, 0
  br i1 %53, label %54, label %60

54:                                               ; preds = %49
  %55 = load ptr, ptr %8, align 8, !tbaa !9
  %56 = getelementptr inbounds nuw %struct.gz_state, ptr %55, i32 0, i32 6
  %57 = load ptr, ptr %56, align 8, !tbaa !25
  %58 = load ptr, ptr %9, align 8, !tbaa !31
  %59 = getelementptr inbounds nuw %struct.z_stream_s, ptr %58, i32 0, i32 0
  store ptr %57, ptr %59, align 8, !tbaa !34
  br label %60

60:                                               ; preds = %54, %49
  %61 = load ptr, ptr %9, align 8, !tbaa !31
  %62 = getelementptr inbounds nuw %struct.z_stream_s, ptr %61, i32 0, i32 0
  %63 = load ptr, ptr %62, align 8, !tbaa !34
  %64 = load ptr, ptr %9, align 8, !tbaa !31
  %65 = getelementptr inbounds nuw %struct.z_stream_s, ptr %64, i32 0, i32 1
  %66 = load i32, ptr %65, align 8, !tbaa !33
  %67 = zext i32 %66 to i64
  %68 = getelementptr inbounds nuw i8, ptr %63, i64 %67
  %69 = load ptr, ptr %8, align 8, !tbaa !9
  %70 = getelementptr inbounds nuw %struct.gz_state, ptr %69, i32 0, i32 6
  %71 = load ptr, ptr %70, align 8, !tbaa !25
  %72 = ptrtoint ptr %68 to i64
  %73 = ptrtoint ptr %71 to i64
  %74 = sub i64 %72, %73
  %75 = trunc i64 %74 to i32
  store i32 %75, ptr %6, align 4, !tbaa !10
  %76 = load i32, ptr %6, align 4, !tbaa !10
  %77 = load ptr, ptr %8, align 8, !tbaa !9
  %78 = getelementptr inbounds nuw %struct.gz_state, ptr %77, i32 0, i32 4
  %79 = load i32, ptr %78, align 8, !tbaa !21
  %80 = icmp ult i32 %76, %79
  br i1 %80, label %81, label %101

81:                                               ; preds = %60
  %82 = load i32, ptr %5, align 4, !tbaa !10
  %83 = trunc i32 %82 to i8
  %84 = load ptr, ptr %8, align 8, !tbaa !9
  %85 = getelementptr inbounds nuw %struct.gz_state, ptr %84, i32 0, i32 6
  %86 = load ptr, ptr %85, align 8, !tbaa !25
  %87 = load i32, ptr %6, align 4, !tbaa !10
  %88 = zext i32 %87 to i64
  %89 = getelementptr inbounds nuw i8, ptr %86, i64 %88
  store i8 %83, ptr %89, align 1, !tbaa !35
  %90 = load ptr, ptr %9, align 8, !tbaa !31
  %91 = getelementptr inbounds nuw %struct.z_stream_s, ptr %90, i32 0, i32 1
  %92 = load i32, ptr %91, align 8, !tbaa !33
  %93 = add i32 %92, 1
  store i32 %93, ptr %91, align 8, !tbaa !33
  %94 = load ptr, ptr %8, align 8, !tbaa !9
  %95 = getelementptr inbounds nuw %struct.gz_state, ptr %94, i32 0, i32 0
  %96 = getelementptr inbounds nuw %struct.gzFile_s, ptr %95, i32 0, i32 2
  %97 = load i64, ptr %96, align 8, !tbaa !27
  %98 = add nsw i64 %97, 1
  store i64 %98, ptr %96, align 8, !tbaa !27
  %99 = load i32, ptr %5, align 4, !tbaa !10
  %100 = and i32 %99, 255
  store i32 %100, ptr %3, align 4
  store i32 1, ptr %10, align 4
  br label %114

101:                                              ; preds = %60
  br label %102

102:                                              ; preds = %101, %44
  %103 = load i32, ptr %5, align 4, !tbaa !10
  %104 = trunc i32 %103 to i8
  %105 = getelementptr inbounds [1 x i8], ptr %7, i64 0, i64 0
  store i8 %104, ptr %105, align 1, !tbaa !35
  %106 = load ptr, ptr %8, align 8, !tbaa !9
  %107 = getelementptr inbounds [1 x i8], ptr %7, i64 0, i64 0
  %108 = call i64 @gz_write(ptr noundef %106, ptr noundef %107, i64 noundef 1)
  %109 = icmp ne i64 %108, 1
  br i1 %109, label %110, label %111

110:                                              ; preds = %102
  store i32 -1, ptr %3, align 4
  store i32 1, ptr %10, align 4
  br label %114

111:                                              ; preds = %102
  %112 = load i32, ptr %5, align 4, !tbaa !10
  %113 = and i32 %112, 255
  store i32 %113, ptr %3, align 4
  store i32 1, ptr %10, align 4
  br label %114

114:                                              ; preds = %111, %110, %81, %42, %27, %13
  call void @llvm.lifetime.end.p0(i64 8, ptr %9) #10
  call void @llvm.lifetime.end.p0(i64 8, ptr %8) #10
  call void @llvm.lifetime.end.p0(i64 1, ptr %7) #10
  call void @llvm.lifetime.end.p0(i64 4, ptr %6) #10
  %115 = load i32, ptr %3, align 4
  ret i32 %115
}